target datalayout = "e-m:e-p270:32:32-p271:32:32-p272:64:64-i64:64-i128:128-f80:128-n8:16:32:64-S128"
target triple = "x86_64-pc-linux-gnu"

%struct.cube = type { i8, i8, i16, i16, i16, ptr, ptr, ptr, ptr }

; Function Attrs: inlinehint nounwind uwtable
define internal i32 @VarBit(i32 noundef %0) #3 {
  %2 = alloca i32, align 4
  store i32 %0, ptr %2, align 4, !tbaa !3
  %3 = load i32, ptr %2, align 4, !tbaa !3
  %4 = and i32 %3, 31
  ret i32 %4
}

; Function Attrs: inlinehint nounwind uwtable
define internal i32 @VarWord(i32 noundef %0) #3 {
  %2 = alloca i32, align 4
  store i32 %0, ptr %2, align 4, !tbaa !3
  %3 = load i32, ptr %2, align 4, !tbaa !3
  %4 = ashr i32 %3, 5
  ret i32 %4
}

; Function Attrs: nounwind uwtable
define void @InsertVarsWithoutClearing(ptr noundef %0, ptr noundef %1, i32 noundef %2, ptr noundef %3, i32 noundef %4) #0 {
  %6 = alloca ptr, align 8
  %7 = alloca ptr, align 8
  %8 = alloca i32, align 4
  %9 = alloca ptr, align 8
  %10 = alloca i32, align 4
  %11 = alloca i32, align 4
  %12 = alloca i32, align 4
  %13 = alloca i32, align 4
  %14 = alloca i32, align 4
  store ptr %0, ptr %6, align 8, !tbaa !11
  store ptr %1, ptr %7, align 8, !tbaa !28
  store i32 %2, ptr %8, align 4, !tbaa !3
  store ptr %3, ptr %9, align 8, !tbaa !28
  store i32 %4, ptr %10, align 4, !tbaa !3
  call void @llvm.lifetime.start.p0(i64 4, ptr %11) #4
  call void @llvm.lifetime.start.p0(i64 4, ptr %12) #4
  call void @llvm.lifetime.start.p0(i64 4, ptr %13) #4
  call void @llvm.lifetime.start.p0(i64 4, ptr %14) #4
  store i32 0, ptr %14, align 4, !tbaa !3
  br label %15

15:                                               ; preds = %45, %5
  %16 = load i32, ptr %14, align 4, !tbaa !3
  %17 = load i32, ptr %8, align 4, !tbaa !3
  %18 = icmp slt i32 %16, %17
  br i1 %18, label %19, label %48

19:                                               ; preds = %15
  %20 = load ptr, ptr %7, align 8, !tbaa !28
  %21 = load i32, ptr %14, align 4, !tbaa !3
  %22 = sext i32 %21 to i64
  %23 = getelementptr inbounds i32, ptr %20, i64 %22
  %24 = load i32, ptr %23, align 4, !tbaa !3
  %25 = shl i32 %24, 1
  store i32 %25, ptr %11, align 4, !tbaa !3
  %26 = load i32, ptr %11, align 4, !tbaa !3
  %27 = call i32 @VarWord(i32 noundef %26)
  store i32 %27, ptr %12, align 4, !tbaa !3
  %28 = load i32, ptr %11, align 4, !tbaa !3
  %29 = call i32 @VarBit(i32 noundef %28)
  store i32 %29, ptr %13, align 4, !tbaa !3
  %30 = load ptr, ptr %9, align 8, !tbaa !28
  %31 = load i32, ptr %14, align 4, !tbaa !3
  %32 = sext i32 %31 to i64
  %33 = getelementptr inbounds i32, ptr %30, i64 %32
  %34 = load i32, ptr %33, align 4, !tbaa !3
  %35 = load i32, ptr %13, align 4, !tbaa !3
  %36 = shl i32 %34, %35
  %37 = load ptr, ptr %6, align 8, !tbaa !11
  %38 = getelementptr inbounds nuw %struct.cube, ptr %37, i32 0, i32 5
  %39 = load ptr, ptr %38, align 8, !tbaa !14
  %40 = load i32, ptr %12, align 4, !tbaa !3
  %41 = sext i32 %40 to i64
  %42 = getelementptr inbounds i32, ptr %39, i64 %41
  %43 = load i32, ptr %42, align 4, !tbaa !3
  %44 = or i32 %43, %36
  store i32 %44, ptr %42, align 4, !tbaa !3
  br label %45

45:                                               ; preds = %19
  %46 = load i32, ptr %14, align 4, !tbaa !3
  %47 = add nsw i32 %46, 1
  store i32 %47, ptr %14, align 4, !tbaa !3
  br label %15, !llvm.loop !34

48:                                               ; preds = %15
  %49 = load i32, ptr %10, align 4, !tbaa !3
  %50 = call i32 @VarBit(i32 noundef %49)
  %51 = shl i32 1, %50
  %52 = load ptr, ptr %6, align 8, !tbaa !11
  %53 = getelementptr inbounds nuw %struct.cube, ptr %52, i32 0, i32 6
  %54 = load ptr, ptr %53, align 8, !tbaa !23
  %55 = load i32, ptr %10, align 4, !tbaa !3
  %56 = call i32 @VarWord(i32 noundef %55)
  %57 = sext i32 %56 to i64
  %58 = getelementptr inbounds i32, ptr %54, i64 %57
  %59 = load i32, ptr %58, align 4, !tbaa !3
  %60 = or i32 %59, %51
  store i32 %60, ptr %58, align 4, !tbaa !3
  call void @llvm.lifetime.end.p0(i64 4, ptr %14) #4
  call void @llvm.lifetime.end.p0(i64 4, ptr %13) #4
  call void @llvm.lifetime.end.p0(i64 4, ptr %12) #4
  call void @llvm.lifetime.end.p0(i64 4, ptr %11) #4
  ret void
}