; Function Attrs: nofree norecurse nosync nounwind memory(readwrite, inaccessiblemem: none) uwtable
define void @InsertVarsWithoutClearing(ptr noundef readonly captures(none) %0, ptr noundef readonly captures(none) %1, i32 noundef %2, ptr noundef readonly captures(none) %3, i32 noundef %4) local_unnamed_addr #5 {
  %6 = icmp sgt i32 %2, 0
  br i1 %6, label %.lr.ph, label %._crit_edge

.lr.ph:                                           ; preds = %5
  %7 = getelementptr inbounds nuw i8, ptr %0, i64 8
  %8 = load ptr, ptr %7, align 8, !tbaa !11
  %wide.trip.count = zext nneg i32 %2 to i64
  br label %9

9:                                                ; preds = %.lr.ph, %9
  %indvars.iv = phi i64 [ 0, %.lr.ph ], [ %indvars.iv.next, %9 ]
  %10 = getelementptr inbounds nuw i32, ptr %1, i64 %indvars.iv
  %11 = load i32, ptr %10, align 4, !tbaa !8
  %12 = shl i32 %11, 1
  %13 = ashr i32 %12, 5
  %14 = and i32 %12, 30
  %15 = getelementptr inbounds nuw i32, ptr %3, i64 %indvars.iv
  %16 = load i32, ptr %15, align 4, !tbaa !8
  %17 = shl i32 %16, %14
  %18 = sext i32 %13 to i64
  %19 = getelementptr inbounds i32, ptr %8, i64 %18
  %20 = load i32, ptr %19, align 4, !tbaa !8
  %21 = or i32 %20, %17
  store i32 %21, ptr %19, align 4, !tbaa !8
  %indvars.iv.next = add nuw nsw i64 %indvars.iv, 1
  %exitcond.not = icmp eq i64 %indvars.iv.next, %wide.trip.count
  br i1 %exitcond.not, label %._crit_edge, label %9, !llvm.loop !32

._crit_edge:                                      ; preds = %9, %5
  %22 = and i32 %4, 31
  %23 = shl nuw i32 1, %22
  %24 = getelementptr inbounds nuw i8, ptr %0, i64 16
  %25 = load ptr, ptr %24, align 8, !tbaa !22
  %26 = ashr i32 %4, 5
  %27 = sext i32 %26 to i64
  %28 = getelementptr inbounds i32, ptr %25, i64 %27
  %29 = load i32, ptr %28, align 4, !tbaa !8
  %30 = or i32 %29, %23
  store i32 %30, ptr %28, align 4, !tbaa !8
  ret void
}